target datalayout = "e-m:e-p270:32:32-p271:32:32-p272:64:64-i64:64-i128:128-f80:128-n8:16:32:64-S128"
target triple = "x86_64-unknown-linux-gnu"

%struct.nstime_t = type { i64 }
%struct.atomic_p_t = type { ptr }
%struct.edata_s = type { i64, ptr, %union.anon.10, ptr, i64, %union.anon.11, %union.anon.14 }
%union.anon.10 = type { i64 }
%union.anon.11 = type { %union.anon.13 }
%union.anon.13 = type { %struct.edata_heap_link_t }
%struct.edata_heap_link_t = type { %struct.phn_link_s }
%struct.phn_link_s = type { ptr, ptr, ptr }
%union.anon.14 = type { %struct.slab_data_s }
%struct.slab_data_s = type { [8 x i64] }
%struct.prof_info_s = type { %struct.nstime_t, ptr, i64 }
%struct.e_prof_info_s = type { %struct.nstime_t, i64, %struct.atomic_p_t, %struct.atomic_p_t }

; Function Attrs: nounwind uwtable
define internal i64 @edata_prof_alloc_size_get(ptr noundef %edata) #0 {
entry:
  %edata.addr = alloca ptr, align 8
  store ptr %edata, ptr %edata.addr, align 8
  %0 = load ptr, ptr %edata.addr, align 8
  %1 = getelementptr inbounds %struct.edata_s, ptr %0, i32 0, i32 6
  %e_prof_alloc_size = getelementptr inbounds %struct.e_prof_info_s, ptr %1, i32 0, i32 1
  %2 = load i64, ptr %e_prof_alloc_size, align 8
  ret i64 %2
}

; Function Attrs: nounwind uwtable
define internal ptr @edata_prof_alloc_time_get(ptr noundef %edata) #0 {
entry:
  %edata.addr = alloca ptr, align 8
  store ptr %edata, ptr %edata.addr, align 8
  %0 = load ptr, ptr %edata.addr, align 8
  %1 = getelementptr inbounds %struct.edata_s, ptr %0, i32 0, i32 6
  %e_prof_alloc_time = getelementptr inbounds %struct.e_prof_info_s, ptr %1, i32 0, i32 0
  ret ptr %e_prof_alloc_time
}

; Function Attrs: nounwind uwtable
define internal ptr @edata_prof_tctx_get(ptr noundef %edata) #0 {
entry:
  %retval.i = alloca i32, align 4
  %mo.addr.i1 = alloca i32, align 4
  %a.addr.i = alloca ptr, align 8
  %mo.addr.i = alloca i32, align 4
  %result.i = alloca ptr, align 8
  %edata.addr = alloca ptr, align 8
  store ptr %edata, ptr %edata.addr, align 8
  %0 = load ptr, ptr %edata.addr, align 8
  %1 = getelementptr inbounds %struct.edata_s, ptr %0, i32 0, i32 6
  %e_prof_tctx = getelementptr inbounds %struct.e_prof_info_s, ptr %1, i32 0, i32 2
  store ptr %e_prof_tctx, ptr %a.addr.i, align 8
  store i32 1, ptr %mo.addr.i, align 4
  %2 = load ptr, ptr %a.addr.i, align 8
  %3 = load i32, ptr %mo.addr.i, align 4
  store i32 %3, ptr %mo.addr.i1, align 4
  %4 = load i32, ptr %mo.addr.i1, align 4
  switch i32 %4, label %sw.epilog.i [
    i32 0, label %sw.bb.i
    i32 1, label %sw.bb1.i
    i32 2, label %sw.bb2.i
    i32 3, label %sw.bb3.i
    i32 4, label %sw.bb4.i
  ]

sw.bb.i:                                          ; preds = %entry
  store i32 0, ptr %retval.i, align 4
  br label %atomic_enum_to_builtin.exit

sw.bb1.i:                                         ; preds = %entry
  store i32 2, ptr %retval.i, align 4
  br label %atomic_enum_to_builtin.exit

sw.bb2.i:                                         ; preds = %entry
  store i32 3, ptr %retval.i, align 4
  br label %atomic_enum_to_builtin.exit

sw.bb3.i:                                         ; preds = %entry
  store i32 4, ptr %retval.i, align 4
  br label %atomic_enum_to_builtin.exit

sw.bb4.i:                                         ; preds = %entry
  store i32 5, ptr %retval.i, align 4
  br label %atomic_enum_to_builtin.exit

sw.epilog.i:                                      ; preds = %entry
  unreachable

atomic_enum_to_builtin.exit:                      ; preds = %sw.bb4.i, %sw.bb3.i, %sw.bb2.i, %sw.bb1.i, %sw.bb.i
  %5 = load i32, ptr %retval.i, align 4
  switch i32 %5, label %monotonic.i [
    i32 1, label %acquire.i
    i32 2, label %acquire.i
    i32 5, label %seqcst.i
  ]

monotonic.i:                                      ; preds = %atomic_enum_to_builtin.exit
  %6 = load atomic i64, ptr %2 monotonic, align 8
  store i64 %6, ptr %result.i, align 8
  br label %atomic_load_p.exit

acquire.i:                                        ; preds = %atomic_enum_to_builtin.exit, %atomic_enum_to_builtin.exit
  %7 = load atomic i64, ptr %2 acquire, align 8
  store i64 %7, ptr %result.i, align 8
  br label %atomic_load_p.exit

seqcst.i:                                         ; preds = %atomic_enum_to_builtin.exit
  %8 = load atomic i64, ptr %2 seq_cst, align 8
  store i64 %8, ptr %result.i, align 8
  br label %atomic_load_p.exit

atomic_load_p.exit:                               ; preds = %seqcst.i, %acquire.i, %monotonic.i
  %9 = load ptr, ptr %result.i, align 8
  ret ptr %9
}

; Function Attrs: nounwind uwtable
define hidden void @large_prof_info_get(ptr noundef %tsd, ptr noundef %edata, ptr noundef %prof_info, i1 noundef zeroext %reset_recent) #0 {
entry:
  %tsd.addr = alloca ptr, align 8
  %edata.addr = alloca ptr, align 8
  %prof_info.addr = alloca ptr, align 8
  %reset_recent.addr = alloca i8, align 1
  %alloc_tctx = alloca ptr, align 8
  store ptr %tsd, ptr %tsd.addr, align 8
  store ptr %edata, ptr %edata.addr, align 8
  store ptr %prof_info, ptr %prof_info.addr, align 8
  %frombool = zext i1 %reset_recent to i8
  store i8 %frombool, ptr %reset_recent.addr, align 1
  br label %do.body

do.body:                                          ; preds = %entry
  br label %do.end

do.end:                                           ; preds = %do.body
  %0 = load ptr, ptr %edata.addr, align 8
  %call = call ptr @edata_prof_tctx_get(ptr noundef %0)
  store ptr %call, ptr %alloc_tctx, align 8
  %1 = load ptr, ptr %alloc_tctx, align 8
  %2 = load ptr, ptr %prof_info.addr, align 8
  %alloc_tctx1 = getelementptr inbounds %struct.prof_info_s, ptr %2, i32 0, i32 1
  store ptr %1, ptr %alloc_tctx1, align 8
  %3 = load ptr, ptr %alloc_tctx, align 8
  %4 = ptrtoint ptr %3 to i64
  %cmp = icmp ugt i64 %4, 1
  br i1 %cmp, label %if.then, label %if.end5

if.then:                                          ; preds = %do.end
  %5 = load ptr, ptr %prof_info.addr, align 8
  %alloc_time = getelementptr inbounds %struct.prof_info_s, ptr %5, i32 0, i32 0
  %6 = load ptr, ptr %edata.addr, align 8
  %call2 = call ptr @edata_prof_alloc_time_get(ptr noundef %6)
  call void @nstime_copy(ptr noundef %alloc_time, ptr noundef %call2)
  %7 = load ptr, ptr %edata.addr, align 8
  %call3 = call i64 @edata_prof_alloc_size_get(ptr noundef %7)
  %8 = load ptr, ptr %prof_info.addr, align 8
  %alloc_size = getelementptr inbounds %struct.prof_info_s, ptr %8, i32 0, i32 2
  store i64 %call3, ptr %alloc_size, align 8
  %9 = load i8, ptr %reset_recent.addr, align 1
  %tobool = trunc i8 %9 to i1
  br i1 %tobool, label %if.then4, label %if.end

if.then4:                                         ; preds = %if.then
  %10 = load ptr, ptr %tsd.addr, align 8
  %11 = load ptr, ptr %edata.addr, align 8
  call void @prof_recent_alloc_reset(ptr noundef %10, ptr noundef %11)
  br label %if.end

if.end:                                           ; preds = %if.then4, %if.then
  br label %if.end5

if.end5:                                          ; preds = %if.end, %do.end
  ret void
}