; Function Attrs: nounwind uwtable
define hidden void @large_prof_info_get(ptr noundef %tsd, ptr noundef %edata, ptr noundef %prof_info, i1 noundef zeroext %reset_recent) local_unnamed_addr #0 {
entry:
  %e_prof_tctx.i = getelementptr inbounds i8, ptr %edata, i64 80
  %0 = load atomic i64, ptr %e_prof_tctx.i acquire, align 8
  %1 = inttoptr i64 %0 to ptr
  %alloc_tctx1 = getelementptr inbounds i8, ptr %prof_info, i64 8
  store ptr %1, ptr %alloc_tctx1, align 8
  %cmp = icmp ugt ptr %1, inttoptr (i64 1 to ptr)
  br i1 %cmp, label %if.then, label %if.end5

if.then:                                          ; preds = %entry
  %2 = getelementptr inbounds i8, ptr %edata, i64 64
  tail call void @nstime_copy(ptr noundef nonnull %prof_info, ptr noundef nonnull %2) #10
  %3 = getelementptr i8, ptr %edata, i64 72
  %edata.val = load i64, ptr %3, align 8
  %alloc_size = getelementptr inbounds i8, ptr %prof_info, i64 16
  store i64 %edata.val, ptr %alloc_size, align 8
  br i1 %reset_recent, label %if.then4, label %if.end5

if.then4:                                         ; preds = %if.then
  tail call void @prof_recent_alloc_reset(ptr noundef %tsd, ptr noundef nonnull %edata) #10
  br label %if.end5

if.end5:                                          ; preds = %if.then, %if.then4, %entry
  ret void
}